target datalayout = "e-m:e-p270:32:32-p271:32:32-p272:64:64-i64:64-i128:128-f80:128-n8:16:32:64-S128"
target triple = "x86_64-pc-linux-gnu"

%"union.pxrInternal_v0_24__pxrReserved__::pxr_half::half::uif" = type { i32 }
%"class.pxrInternal_v0_24__pxrReserved__::GfVec2f" = type { [2 x float] }
%"class.pxrInternal_v0_24__pxrReserved__::GfVec2h" = type { [2 x %"class.pxrInternal_v0_24__pxrReserved__::pxr_half::half"] }
%"class.pxrInternal_v0_24__pxrReserved__::pxr_half::half" = type { i16 }

@_ZN32pxrInternal_v0_24__pxrReserved__8pxr_half4half8_toFloatE = external global [65536 x %"union.pxrInternal_v0_24__pxrReserved__::pxr_half::half::uif"], align 16

; Function Attrs: mustprogress nounwind uwtable
define linkonce_odr noundef float @_ZNK32pxrInternal_v0_24__pxrReserved__8pxr_half4halfcvfEv(ptr noundef nonnull align 2 dereferenceable(2) %0) #2 comdat align 2 {
  %2 = alloca ptr, align 8
  store ptr %0, ptr %2, align 8
  %3 = load ptr, ptr %2, align 8
  %4 = getelementptr inbounds nuw %"class.pxrInternal_v0_24__pxrReserved__::pxr_half::half", ptr %3, i32 0, i32 0
  %5 = load i16, ptr %4, align 2
  %6 = zext i16 %5 to i64
  %7 = getelementptr inbounds [65536 x %"union.pxrInternal_v0_24__pxrReserved__::pxr_half::half::uif"], ptr @_ZN32pxrInternal_v0_24__pxrReserved__8pxr_half4half8_toFloatE, i64 0, i64 %6
  %8 = load float, ptr %7, align 4
  ret float %8
}

; Function Attrs: mustprogress nounwind uwtable
define linkonce_odr noundef nonnull align 2 dereferenceable(2) ptr @_ZNK32pxrInternal_v0_24__pxrReserved__7GfVec2hixEm(ptr noundef nonnull align 2 dereferenceable(4) %0, i64 noundef %1) #2 comdat align 2 {
  %3 = alloca ptr, align 8
  %4 = alloca i64, align 8
  store ptr %0, ptr %3, align 8
  store i64 %1, ptr %4, align 8
  %5 = load ptr, ptr %3, align 8
  %6 = getelementptr inbounds nuw %"class.pxrInternal_v0_24__pxrReserved__::GfVec2h", ptr %5, i32 0, i32 0
  %7 = load i64, ptr %4, align 8
  %8 = getelementptr inbounds [2 x %"class.pxrInternal_v0_24__pxrReserved__::pxr_half::half"], ptr %6, i64 0, i64 %7
  ret ptr %8
}

; Function Attrs: mustprogress uwtable
define noundef zeroext i1 @_ZNK32pxrInternal_v0_24__pxrReserved__7GfVec2feqERKNS_7GfVec2hE(ptr noundef nonnull align 4 dereferenceable(8) %0, ptr noundef nonnull align 2 dereferenceable(4) %1) #0 align 2 {
  %3 = alloca ptr, align 8
  %4 = alloca ptr, align 8
  store ptr %0, ptr %3, align 8
  store ptr %1, ptr %4, align 8
  %5 = load ptr, ptr %3, align 8
  %6 = getelementptr inbounds nuw %"class.pxrInternal_v0_24__pxrReserved__::GfVec2f", ptr %5, i32 0, i32 0
  %7 = getelementptr inbounds [2 x float], ptr %6, i64 0, i64 0
  %8 = load float, ptr %7, align 4
  %9 = load ptr, ptr %4, align 8
  %10 = call noundef nonnull align 2 dereferenceable(2) ptr @_ZNK32pxrInternal_v0_24__pxrReserved__7GfVec2hixEm(ptr noundef nonnull align 2 dereferenceable(4) %9, i64 noundef 0)
  %11 = call noundef float @_ZNK32pxrInternal_v0_24__pxrReserved__8pxr_half4halfcvfEv(ptr noundef nonnull align 2 dereferenceable(2) %10)
  %12 = fcmp oeq float %8, %11
  br i1 %12, label %13, label %21

13:                                               ; preds = %2
  %14 = getelementptr inbounds nuw %"class.pxrInternal_v0_24__pxrReserved__::GfVec2f", ptr %5, i32 0, i32 0
  %15 = getelementptr inbounds [2 x float], ptr %14, i64 0, i64 1
  %16 = load float, ptr %15, align 4
  %17 = load ptr, ptr %4, align 8
  %18 = call noundef nonnull align 2 dereferenceable(2) ptr @_ZNK32pxrInternal_v0_24__pxrReserved__7GfVec2hixEm(ptr noundef nonnull align 2 dereferenceable(4) %17, i64 noundef 1)
  %19 = call noundef float @_ZNK32pxrInternal_v0_24__pxrReserved__8pxr_half4halfcvfEv(ptr noundef nonnull align 2 dereferenceable(2) %18)
  %20 = fcmp oeq float %16, %19
  br label %21

21:                                               ; preds = %13, %2
  %22 = phi i1 [ false, %2 ], [ %20, %13 ]
  ret i1 %22
}